target datalayout = "e-m:e-p270:32:32-p271:32:32-p272:64:64-i64:64-i128:128-f80:128-n8:16:32:64-S128"
target triple = "x86_64-pc-linux-gnu"

%struct.WaveformContext = type { ptr, i32, i32, i32, i32, i32, [4 x i8], float, i32, i32, i32, i32, i32, float, float, [4 x i32], [4 x i32], [4 x [4 x ptr]], [4 x [4 x ptr]], ptr, i32, i32, i32, i32, i32, i32, [4 x i8], [4 x i32], [4 x i32], ptr, i32, i32, [2 x float], [2 x i32], i32, i32, ptr, ptr, ptr, ptr, ptr, ptr }
%struct.AVChannelLayout = type { i32, i32, %union.anon.1, ptr }
%union.anon.1 = type { i64 }
%struct.AVRational = type { i32, i32 }
%struct.AVFrame = type { [8 x ptr], [8 x i32], ptr, i32, i32, i32, i32, i32, %struct.AVRational, i64, i64, %struct.AVRational, i32, ptr, i32, i32, [8 x ptr], ptr, i32, ptr, i32, i32, i32, i32, i32, i32, i32, i64, ptr, i32, ptr, ptr, i64, i64, i64, i64, ptr, %struct.AVChannelLayout, i64 }

; Function Attrs: nounwind uwtable
define internal void @envelope_instant(ptr noundef %0, ptr noundef %1, i32 noundef %2, i32 noundef %3, i32 noundef %4) #1 {
  %6 = alloca ptr, align 8
  %7 = alloca ptr, align 8
  %8 = alloca i32, align 4
  %9 = alloca i32, align 4
  %10 = alloca i32, align 4
  %11 = alloca i32, align 4
  %12 = alloca i8, align 1
  %13 = alloca i32, align 4
  %14 = alloca i32, align 4
  %15 = alloca i32, align 4
  %16 = alloca i32, align 4
  %17 = alloca ptr, align 8
  %18 = alloca i32, align 4
  %19 = alloca i32, align 4
  store ptr %0, ptr %6, align 8, !tbaa !22
  store ptr %1, ptr %7, align 8, !tbaa !61
  store i32 %2, ptr %8, align 4, !tbaa !47
  store i32 %3, ptr %9, align 4, !tbaa !47
  store i32 %4, ptr %10, align 4, !tbaa !47
  call void @llvm.lifetime.start.p0(i64 4, ptr %11) #10
  %20 = load ptr, ptr %7, align 8, !tbaa !61
  %21 = getelementptr inbounds nuw %struct.AVFrame, ptr %20, i32 0, i32 1
  %22 = load i32, ptr %9, align 4, !tbaa !47
  %23 = sext i32 %22 to i64
  %24 = getelementptr inbounds [8 x i32], ptr %21, i64 0, i64 %23
  %25 = load i32, ptr %24, align 4, !tbaa !47
  store i32 %25, ptr %11, align 4, !tbaa !47
  call void @llvm.lifetime.start.p0(i64 1, ptr %12) #10
  %26 = load ptr, ptr %6, align 8, !tbaa !22
  %27 = getelementptr inbounds nuw %struct.WaveformContext, ptr %26, i32 0, i32 6
  %28 = load i32, ptr %9, align 4, !tbaa !47
  %29 = sext i32 %28 to i64
  %30 = getelementptr inbounds [4 x i8], ptr %27, i64 0, i64 %29
  %31 = load i8, ptr %30, align 1, !tbaa !68
  store i8 %31, ptr %12, align 1, !tbaa !68
  call void @llvm.lifetime.start.p0(i64 4, ptr %13) #10
  %32 = load ptr, ptr %6, align 8, !tbaa !22
  %33 = getelementptr inbounds nuw %struct.WaveformContext, ptr %32, i32 0, i32 10
  %34 = load i32, ptr %33, align 4, !tbaa !89
  %35 = icmp eq i32 %34, 2
  br i1 %35, label %36, label %44

36:                                               ; preds = %5
  %37 = load ptr, ptr %7, align 8, !tbaa !61
  %38 = getelementptr inbounds nuw %struct.AVFrame, ptr %37, i32 0, i32 4
  %39 = load i32, ptr %38, align 4, !tbaa !118
  %40 = load ptr, ptr %6, align 8, !tbaa !22
  %41 = getelementptr inbounds nuw %struct.WaveformContext, ptr %40, i32 0, i32 2
  %42 = load i32, ptr %41, align 4, !tbaa !119
  %43 = sdiv i32 %39, %42
  br label %48

44:                                               ; preds = %5
  %45 = load ptr, ptr %7, align 8, !tbaa !61
  %46 = getelementptr inbounds nuw %struct.AVFrame, ptr %45, i32 0, i32 4
  %47 = load i32, ptr %46, align 4, !tbaa !118
  br label %48

48:                                               ; preds = %44, %36
  %49 = phi i32 [ %43, %36 ], [ %47, %44 ]
  store i32 %49, ptr %13, align 4, !tbaa !47
  call void @llvm.lifetime.start.p0(i64 4, ptr %14) #10
  %50 = load ptr, ptr %6, align 8, !tbaa !22
  %51 = getelementptr inbounds nuw %struct.WaveformContext, ptr %50, i32 0, i32 10
  %52 = load i32, ptr %51, align 4, !tbaa !89
  %53 = icmp eq i32 %52, 2
  br i1 %53, label %54, label %62

54:                                               ; preds = %48
  %55 = load ptr, ptr %7, align 8, !tbaa !61
  %56 = getelementptr inbounds nuw %struct.AVFrame, ptr %55, i32 0, i32 3
  %57 = load i32, ptr %56, align 8, !tbaa !120
  %58 = load ptr, ptr %6, align 8, !tbaa !22
  %59 = getelementptr inbounds nuw %struct.WaveformContext, ptr %58, i32 0, i32 2
  %60 = load i32, ptr %59, align 4, !tbaa !119
  %61 = sdiv i32 %57, %60
  br label %66

62:                                               ; preds = %48
  %63 = load ptr, ptr %7, align 8, !tbaa !61
  %64 = getelementptr inbounds nuw %struct.AVFrame, ptr %63, i32 0, i32 3
  %65 = load i32, ptr %64, align 8, !tbaa !120
  br label %66

66:                                               ; preds = %62, %54
  %67 = phi i32 [ %61, %54 ], [ %65, %62 ]
  store i32 %67, ptr %14, align 4, !tbaa !47
  call void @llvm.lifetime.start.p0(i64 4, ptr %15) #10
  %68 = load ptr, ptr %6, align 8, !tbaa !22
  %69 = getelementptr inbounds nuw %struct.WaveformContext, ptr %68, i32 0, i32 15
  %70 = load i32, ptr %8, align 4, !tbaa !47
  %71 = sext i32 %70 to i64
  %72 = getelementptr inbounds [4 x i32], ptr %69, i64 0, i64 %71
  %73 = load i32, ptr %72, align 4, !tbaa !47
  store i32 %73, ptr %15, align 4, !tbaa !47
  call void @llvm.lifetime.start.p0(i64 4, ptr %16) #10
  %74 = load ptr, ptr %6, align 8, !tbaa !22
  %75 = getelementptr inbounds nuw %struct.WaveformContext, ptr %74, i32 0, i32 16
  %76 = load i32, ptr %8, align 4, !tbaa !47
  %77 = sext i32 %76 to i64
  %78 = getelementptr inbounds [4 x i32], ptr %75, i64 0, i64 %77
  %79 = load i32, ptr %78, align 4, !tbaa !47
  store i32 %79, ptr %16, align 4, !tbaa !47
  call void @llvm.lifetime.start.p0(i64 8, ptr %17) #10
  call void @llvm.lifetime.start.p0(i64 4, ptr %18) #10
  call void @llvm.lifetime.start.p0(i64 4, ptr %19) #10
  %80 = load ptr, ptr %6, align 8, !tbaa !22
  %81 = getelementptr inbounds nuw %struct.WaveformContext, ptr %80, i32 0, i32 1
  %82 = load i32, ptr %81, align 8, !tbaa !90
  %83 = icmp ne i32 %82, 0
  br i1 %83, label %84, label %168

84:                                               ; preds = %66
  %85 = load i32, ptr %10, align 4, !tbaa !47
  store i32 %85, ptr %18, align 4, !tbaa !47
  br label %86

86:                                               ; preds = %164, %84
  %87 = load i32, ptr %18, align 4, !tbaa !47
  %88 = load i32, ptr %10, align 4, !tbaa !47
  %89 = load i32, ptr %14, align 4, !tbaa !47
  %90 = add nsw i32 %88, %89
  %91 = icmp slt i32 %87, %90
  br i1 %91, label %92, label %167

92:                                               ; preds = %86
  %93 = load i32, ptr %15, align 4, !tbaa !47
  store i32 %93, ptr %19, align 4, !tbaa !47
  br label %94

94:                                               ; preds = %124, %92
  %95 = load i32, ptr %19, align 4, !tbaa !47
  %96 = load i32, ptr %16, align 4, !tbaa !47
  %97 = icmp slt i32 %95, %96
  br i1 %97, label %98, label %127

98:                                               ; preds = %94
  %99 = load ptr, ptr %7, align 8, !tbaa !61
  %100 = getelementptr inbounds nuw %struct.AVFrame, ptr %99, i32 0, i32 0
  %101 = load i32, ptr %9, align 4, !tbaa !47
  %102 = sext i32 %101 to i64
  %103 = getelementptr inbounds [8 x ptr], ptr %100, i64 0, i64 %102
  %104 = load ptr, ptr %103, align 8, !tbaa !77
  %105 = load i32, ptr %19, align 4, !tbaa !47
  %106 = load i32, ptr %11, align 4, !tbaa !47
  %107 = mul nsw i32 %105, %106
  %108 = sext i32 %107 to i64
  %109 = getelementptr inbounds i8, ptr %104, i64 %108
  %110 = load i32, ptr %18, align 4, !tbaa !47
  %111 = sext i32 %110 to i64
  %112 = getelementptr inbounds i8, ptr %109, i64 %111
  store ptr %112, ptr %17, align 8, !tbaa !77
  %113 = load ptr, ptr %17, align 8, !tbaa !77
  %114 = getelementptr inbounds i8, ptr %113, i64 0
  %115 = load i8, ptr %114, align 1, !tbaa !68
  %116 = zext i8 %115 to i32
  %117 = load i8, ptr %12, align 1, !tbaa !68
  %118 = zext i8 %117 to i32
  %119 = icmp ne i32 %116, %118
  br i1 %119, label %120, label %123

120:                                              ; preds = %98
  %121 = load ptr, ptr %17, align 8, !tbaa !77
  %122 = getelementptr inbounds i8, ptr %121, i64 0
  store i8 -1, ptr %122, align 1, !tbaa !68
  br label %127

123:                                              ; preds = %98
  br label %124

124:                                              ; preds = %123
  %125 = load i32, ptr %19, align 4, !tbaa !47
  %126 = add nsw i32 %125, 1
  store i32 %126, ptr %19, align 4, !tbaa !47
  br label %94, !llvm.loop !121

127:                                              ; preds = %120, %94
  %128 = load i32, ptr %16, align 4, !tbaa !47
  %129 = sub nsw i32 %128, 1
  store i32 %129, ptr %19, align 4, !tbaa !47
  br label %130

130:                                              ; preds = %160, %127
  %131 = load i32, ptr %19, align 4, !tbaa !47
  %132 = load i32, ptr %15, align 4, !tbaa !47
  %133 = icmp sge i32 %131, %132
  br i1 %133, label %134, label %163

134:                                              ; preds = %130
  %135 = load ptr, ptr %7, align 8, !tbaa !61
  %136 = getelementptr inbounds nuw %struct.AVFrame, ptr %135, i32 0, i32 0
  %137 = load i32, ptr %9, align 4, !tbaa !47
  %138 = sext i32 %137 to i64
  %139 = getelementptr inbounds [8 x ptr], ptr %136, i64 0, i64 %138
  %140 = load ptr, ptr %139, align 8, !tbaa !77
  %141 = load i32, ptr %19, align 4, !tbaa !47
  %142 = load i32, ptr %11, align 4, !tbaa !47
  %143 = mul nsw i32 %141, %142
  %144 = sext i32 %143 to i64
  %145 = getelementptr inbounds i8, ptr %140, i64 %144
  %146 = load i32, ptr %18, align 4, !tbaa !47
  %147 = sext i32 %146 to i64
  %148 = getelementptr inbounds i8, ptr %145, i64 %147
  store ptr %148, ptr %17, align 8, !tbaa !77
  %149 = load ptr, ptr %17, align 8, !tbaa !77
  %150 = getelementptr inbounds i8, ptr %149, i64 0
  %151 = load i8, ptr %150, align 1, !tbaa !68
  %152 = zext i8 %151 to i32
  %153 = load i8, ptr %12, align 1, !tbaa !68
  %154 = zext i8 %153 to i32
  %155 = icmp ne i32 %152, %154
  br i1 %155, label %156, label %159

156:                                              ; preds = %134
  %157 = load ptr, ptr %17, align 8, !tbaa !77
  %158 = getelementptr inbounds i8, ptr %157, i64 0
  store i8 -1, ptr %158, align 1, !tbaa !68
  br label %163

159:                                              ; preds = %134
  br label %160

160:                                              ; preds = %159
  %161 = load i32, ptr %19, align 4, !tbaa !47
  %162 = add nsw i32 %161, -1
  store i32 %162, ptr %19, align 4, !tbaa !47
  br label %130, !llvm.loop !122

163:                                              ; preds = %156, %130
  br label %164

164:                                              ; preds = %163
  %165 = load i32, ptr %18, align 4, !tbaa !47
  %166 = add nsw i32 %165, 1
  store i32 %166, ptr %18, align 4, !tbaa !47
  br label %86, !llvm.loop !123

167:                                              ; preds = %86
  br label %243

168:                                              ; preds = %66
  %169 = load i32, ptr %10, align 4, !tbaa !47
  store i32 %169, ptr %19, align 4, !tbaa !47
  br label %170

170:                                              ; preds = %239, %168
  %171 = load i32, ptr %19, align 4, !tbaa !47
  %172 = load i32, ptr %10, align 4, !tbaa !47
  %173 = load i32, ptr %13, align 4, !tbaa !47
  %174 = add nsw i32 %172, %173
  %175 = icmp slt i32 %171, %174
  br i1 %175, label %176, label %242

176:                                              ; preds = %170
  %177 = load ptr, ptr %7, align 8, !tbaa !61
  %178 = getelementptr inbounds nuw %struct.AVFrame, ptr %177, i32 0, i32 0
  %179 = load i32, ptr %9, align 4, !tbaa !47
  %180 = sext i32 %179 to i64
  %181 = getelementptr inbounds [8 x ptr], ptr %178, i64 0, i64 %180
  %182 = load ptr, ptr %181, align 8, !tbaa !77
  %183 = load i32, ptr %19, align 4, !tbaa !47
  %184 = load i32, ptr %11, align 4, !tbaa !47
  %185 = mul nsw i32 %183, %184
  %186 = sext i32 %185 to i64
  %187 = getelementptr inbounds i8, ptr %182, i64 %186
  store ptr %187, ptr %17, align 8, !tbaa !77
  %188 = load i32, ptr %15, align 4, !tbaa !47
  store i32 %188, ptr %18, align 4, !tbaa !47
  br label %189

189:                                              ; preds = %209, %176
  %190 = load i32, ptr %18, align 4, !tbaa !47
  %191 = load i32, ptr %16, align 4, !tbaa !47
  %192 = icmp slt i32 %190, %191
  br i1 %192, label %193, label %212

193:                                              ; preds = %189
  %194 = load ptr, ptr %17, align 8, !tbaa !77
  %195 = load i32, ptr %18, align 4, !tbaa !47
  %196 = sext i32 %195 to i64
  %197 = getelementptr inbounds i8, ptr %194, i64 %196
  %198 = load i8, ptr %197, align 1, !tbaa !68
  %199 = zext i8 %198 to i32
  %200 = load i8, ptr %12, align 1, !tbaa !68
  %201 = zext i8 %200 to i32
  %202 = icmp ne i32 %199, %201
  br i1 %202, label %203, label %208

203:                                              ; preds = %193
  %204 = load ptr, ptr %17, align 8, !tbaa !77
  %205 = load i32, ptr %18, align 4, !tbaa !47
  %206 = sext i32 %205 to i64
  %207 = getelementptr inbounds i8, ptr %204, i64 %206
  store i8 -1, ptr %207, align 1, !tbaa !68
  br label %212

208:                                              ; preds = %193
  br label %209

209:                                              ; preds = %208
  %210 = load i32, ptr %18, align 4, !tbaa !47
  %211 = add nsw i32 %210, 1
  store i32 %211, ptr %18, align 4, !tbaa !47
  br label %189, !llvm.loop !124

212:                                              ; preds = %203, %189
  %213 = load i32, ptr %16, align 4, !tbaa !47
  %214 = sub nsw i32 %213, 1
  store i32 %214, ptr %18, align 4, !tbaa !47
  br label %215

215:                                              ; preds = %235, %212
  %216 = load i32, ptr %18, align 4, !tbaa !47
  %217 = load i32, ptr %15, align 4, !tbaa !47
  %218 = icmp sge i32 %216, %217
  br i1 %218, label %219, label %238

219:                                              ; preds = %215
  %220 = load ptr, ptr %17, align 8, !tbaa !77
  %221 = load i32, ptr %18, align 4, !tbaa !47
  %222 = sext i32 %221 to i64
  %223 = getelementptr inbounds i8, ptr %220, i64 %222
  %224 = load i8, ptr %223, align 1, !tbaa !68
  %225 = zext i8 %224 to i32
  %226 = load i8, ptr %12, align 1, !tbaa !68
  %227 = zext i8 %226 to i32
  %228 = icmp ne i32 %225, %227
  br i1 %228, label %229, label %234

229:                                              ; preds = %219
  %230 = load ptr, ptr %17, align 8, !tbaa !77
  %231 = load i32, ptr %18, align 4, !tbaa !47
  %232 = sext i32 %231 to i64
  %233 = getelementptr inbounds i8, ptr %230, i64 %232
  store i8 -1, ptr %233, align 1, !tbaa !68
  br label %238

234:                                              ; preds = %219
  br label %235

235:                                              ; preds = %234
  %236 = load i32, ptr %18, align 4, !tbaa !47
  %237 = add nsw i32 %236, -1
  store i32 %237, ptr %18, align 4, !tbaa !47
  br label %215, !llvm.loop !125

238:                                              ; preds = %229, %215
  br label %239

239:                                              ; preds = %238
  %240 = load i32, ptr %19, align 4, !tbaa !47
  %241 = add nsw i32 %240, 1
  store i32 %241, ptr %19, align 4, !tbaa !47
  br label %170, !llvm.loop !126

242:                                              ; preds = %170
  br label %243

243:                                              ; preds = %242, %167
  call void @llvm.lifetime.end.p0(i64 4, ptr %19) #10
  call void @llvm.lifetime.end.p0(i64 4, ptr %18) #10
  call void @llvm.lifetime.end.p0(i64 8, ptr %17) #10
  call void @llvm.lifetime.end.p0(i64 4, ptr %16) #10
  call void @llvm.lifetime.end.p0(i64 4, ptr %15) #10
  call void @llvm.lifetime.end.p0(i64 4, ptr %14) #10
  call void @llvm.lifetime.end.p0(i64 4, ptr %13) #10
  call void @llvm.lifetime.end.p0(i64 1, ptr %12) #10
  call void @llvm.lifetime.end.p0(i64 4, ptr %11) #10
  ret void
}