; Function Attrs: nofree norecurse nosync nounwind memory(readwrite, inaccessiblemem: none) uwtable
define internal fastcc void @envelope_instant(ptr noundef readonly captures(none) %0, ptr noundef nonnull readonly captures(none) %1, i32 noundef %2, i32 noundef %3, i32 noundef %4) unnamed_addr #6 {
  %6 = getelementptr inbounds nuw i8, ptr %1, i64 64
  %7 = sext i32 %3 to i64
  %8 = getelementptr inbounds [8 x i32], ptr %6, i64 0, i64 %7
  %9 = load i32, ptr %8, align 4, !tbaa !44
  %10 = getelementptr inbounds nuw i8, ptr %0, i64 28
  %11 = getelementptr inbounds [4 x i8], ptr %10, i64 0, i64 %7
  %12 = load i8, ptr %11, align 1, !tbaa !62
  %13 = getelementptr inbounds nuw i8, ptr %0, i64 44
  %14 = load i32, ptr %13, align 4, !tbaa !83
  %15 = icmp eq i32 %14, 2
  %16 = getelementptr inbounds nuw i8, ptr %1, i64 108
  %17 = load i32, ptr %16, align 4, !tbaa !111
  br i1 %15, label %18, label %25

18:                                               ; preds = %5
  %19 = getelementptr inbounds nuw i8, ptr %0, i64 12
  %20 = load i32, ptr %19, align 4, !tbaa !112
  %21 = sdiv i32 %17, %20
  %22 = getelementptr inbounds nuw i8, ptr %1, i64 104
  %23 = load i32, ptr %22, align 8, !tbaa !113
  %24 = sdiv i32 %23, %20
  br label %28

25:                                               ; preds = %5
  %26 = getelementptr inbounds nuw i8, ptr %1, i64 104
  %27 = load i32, ptr %26, align 8, !tbaa !113
  br label %28

28:                                               ; preds = %25, %18
  %29 = phi i32 [ %21, %18 ], [ %17, %25 ]
  %30 = phi i32 [ %24, %18 ], [ %27, %25 ]
  %31 = getelementptr inbounds nuw i8, ptr %0, i64 64
  %32 = sext i32 %2 to i64
  %33 = getelementptr inbounds [4 x i32], ptr %31, i64 0, i64 %32
  %34 = load i32, ptr %33, align 4, !tbaa !44
  %35 = getelementptr inbounds nuw i8, ptr %0, i64 80
  %36 = getelementptr inbounds [4 x i32], ptr %35, i64 0, i64 %32
  %37 = load i32, ptr %36, align 4, !tbaa !44
  %38 = getelementptr inbounds nuw i8, ptr %0, i64 8
  %39 = load i32, ptr %38, align 8, !tbaa !84
  %.not = icmp eq i32 %39, 0
  br i1 %.not, label %.preheader, label %.preheader86

.preheader86:                                     ; preds = %28
  %40 = icmp sgt i32 %30, 0
  br i1 %40, label %.preheader84.lr.ph, label %.loopexit82

.preheader84.lr.ph:                               ; preds = %.preheader86
  %41 = add nsw i32 %30, %4
  %42 = icmp slt i32 %34, %37
  %43 = getelementptr inbounds [8 x ptr], ptr %1, i64 0, i64 %7
  %44 = sext i32 %9 to i64
  %45 = sext i32 %4 to i64
  %46 = sext i32 %41 to i64
  br i1 %42, label %.preheader84.us.preheader, label %.preheader84.preheader

.preheader84.preheader:                           ; preds = %.preheader84.lr.ph
  %47 = sext i32 %37 to i64
  %48 = sext i32 %34 to i64
  br label %.preheader84

.preheader84.us.preheader:                        ; preds = %.preheader84.lr.ph
  %49 = sext i32 %34 to i64
  %50 = sext i32 %37 to i64
  br label %.preheader84.us

.preheader84.us:                                  ; preds = %.preheader84.us.preheader, %.loopexit83.us
  %indvars.iv122 = phi i64 [ %45, %.preheader84.us.preheader ], [ %indvars.iv.next123, %.loopexit83.us ]
  %51 = load ptr, ptr %43, align 8, !tbaa !71
  br label %53

52:                                               ; preds = %53
  %indvars.iv.next117 = add nsw i64 %indvars.iv116, 1
  %lftr.wideiv = trunc i64 %indvars.iv.next117 to i32
  %exitcond.not = icmp eq i32 %37, %lftr.wideiv
  br i1 %exitcond.not, label %..loopexit85_crit_edge.us.preheader, label %53, !llvm.loop !131

53:                                               ; preds = %.preheader84.us, %52
  %indvars.iv116 = phi i64 [ %49, %.preheader84.us ], [ %indvars.iv.next117, %52 ]
  %54 = mul nsw i64 %indvars.iv116, %44
  %55 = getelementptr inbounds i8, ptr %51, i64 %54
  %56 = getelementptr inbounds i8, ptr %55, i64 %indvars.iv122
  %57 = load i8, ptr %56, align 1, !tbaa !62
  %.not78.us = icmp eq i8 %57, %12
  br i1 %.not78.us, label %52, label %58

58:                                               ; preds = %53
  %59 = getelementptr inbounds i8, ptr %55, i64 %indvars.iv122
  store i8 -1, ptr %59, align 1, !tbaa !62
  br label %..loopexit85_crit_edge.us.preheader

..loopexit85_crit_edge.us.preheader:              ; preds = %52, %58
  br label %..loopexit85_crit_edge.us

..loopexit85_crit_edge.us:                        ; preds = %..loopexit85_crit_edge.us.preheader, %60
  %indvars.iv119 = phi i64 [ %indvars.iv.next120, %60 ], [ %50, %..loopexit85_crit_edge.us.preheader ]
  %.not79.not.us = icmp sgt i64 %indvars.iv119, %49
  br i1 %.not79.not.us, label %60, label %.loopexit83.us

60:                                               ; preds = %..loopexit85_crit_edge.us
  %indvars.iv.next120 = add nsw i64 %indvars.iv119, -1
  %61 = load ptr, ptr %43, align 8, !tbaa !71
  %62 = mul nsw i64 %indvars.iv.next120, %44
  %63 = getelementptr inbounds i8, ptr %61, i64 %62
  %64 = getelementptr inbounds i8, ptr %63, i64 %indvars.iv122
  %65 = load i8, ptr %64, align 1, !tbaa !62
  %.not80.us = icmp eq i8 %65, %12
  br i1 %.not80.us, label %..loopexit85_crit_edge.us, label %66, !llvm.loop !132

66:                                               ; preds = %60
  %67 = getelementptr inbounds i8, ptr %63, i64 %indvars.iv122
  store i8 -1, ptr %67, align 1, !tbaa !62
  br label %.loopexit83.us

.loopexit83.us:                                   ; preds = %..loopexit85_crit_edge.us, %66
  %indvars.iv.next123 = add nsw i64 %indvars.iv122, 1
  %68 = icmp slt i64 %indvars.iv.next123, %46
  br i1 %68, label %.preheader84.us, label %.loopexit82, !llvm.loop !133

.preheader:                                       ; preds = %28
  %69 = icmp sgt i32 %29, 0
  br i1 %69, label %.lr.ph101, label %.loopexit82

.lr.ph101:                                        ; preds = %.preheader
  %70 = add nsw i32 %29, %4
  %71 = getelementptr inbounds [8 x ptr], ptr %1, i64 0, i64 %7
  %72 = icmp slt i32 %34, %37
  %73 = sext i32 %4 to i64
  %74 = sext i32 %9 to i64
  %75 = sext i32 %70 to i64
  br i1 %72, label %.lr.ph.us.preheader, label %.loopexit81.preheader

.loopexit81.preheader:                            ; preds = %.lr.ph101
  %76 = sext i32 %37 to i64
  %77 = sext i32 %34 to i64
  br label %.loopexit81

.lr.ph.us.preheader:                              ; preds = %.lr.ph101
  %78 = sext i32 %34 to i64
  %79 = sext i32 %37 to i64
  br label %.lr.ph.us

.lr.ph.us:                                        ; preds = %.lr.ph.us.preheader, %.loopexit.us
  %indvars.iv139 = phi i64 [ %73, %.lr.ph.us.preheader ], [ %indvars.iv.next140, %.loopexit.us ]
  %80 = load ptr, ptr %71, align 8, !tbaa !71
  %81 = mul nsw i64 %indvars.iv139, %74
  %82 = getelementptr inbounds i8, ptr %80, i64 %81
  br label %84

83:                                               ; preds = %84
  %indvars.iv.next132 = add nsw i64 %indvars.iv131, 1
  %lftr.wideiv134 = trunc i64 %indvars.iv.next132 to i32
  %exitcond135.not = icmp eq i32 %37, %lftr.wideiv134
  br i1 %exitcond135.not, label %..loopexit81_crit_edge.us.preheader, label %84, !llvm.loop !134

84:                                               ; preds = %.lr.ph.us, %83
  %indvars.iv131 = phi i64 [ %78, %.lr.ph.us ], [ %indvars.iv.next132, %83 ]
  %85 = getelementptr inbounds i8, ptr %82, i64 %indvars.iv131
  %86 = load i8, ptr %85, align 1, !tbaa !62
  %.not75.us = icmp eq i8 %86, %12
  br i1 %.not75.us, label %83, label %87

87:                                               ; preds = %84
  %88 = getelementptr inbounds i8, ptr %82, i64 %indvars.iv131
  store i8 -1, ptr %88, align 1, !tbaa !62
  br label %..loopexit81_crit_edge.us.preheader

..loopexit81_crit_edge.us.preheader:              ; preds = %83, %87
  br label %..loopexit81_crit_edge.us

..loopexit81_crit_edge.us:                        ; preds = %..loopexit81_crit_edge.us.preheader, %89
  %indvars.iv136 = phi i64 [ %indvars.iv.next137, %89 ], [ %79, %..loopexit81_crit_edge.us.preheader ]
  %.not76.not.us = icmp sgt i64 %indvars.iv136, %78
  br i1 %.not76.not.us, label %89, label %.loopexit.us

89:                                               ; preds = %..loopexit81_crit_edge.us
  %indvars.iv.next137 = add nsw i64 %indvars.iv136, -1
  %90 = getelementptr inbounds i8, ptr %82, i64 %indvars.iv.next137
  %91 = load i8, ptr %90, align 1, !tbaa !62
  %.not77.us = icmp eq i8 %91, %12
  br i1 %.not77.us, label %..loopexit81_crit_edge.us, label %92, !llvm.loop !135

92:                                               ; preds = %89
  %93 = getelementptr inbounds i8, ptr %82, i64 %indvars.iv.next137
  store i8 -1, ptr %93, align 1, !tbaa !62
  br label %.loopexit.us

.loopexit.us:                                     ; preds = %..loopexit81_crit_edge.us, %92
  %indvars.iv.next140 = add nsw i64 %indvars.iv139, 1
  %94 = icmp slt i64 %indvars.iv.next140, %75
  br i1 %94, label %.lr.ph.us, label %.loopexit82, !llvm.loop !136

.preheader84:                                     ; preds = %.preheader84.preheader, %.loopexit83
  %indvars.iv113 = phi i64 [ %45, %.preheader84.preheader ], [ %indvars.iv.next114, %.loopexit83 ]
  br label %95

95:                                               ; preds = %96, %.preheader84
  %indvars.iv = phi i64 [ %indvars.iv.next, %96 ], [ %47, %.preheader84 ]
  %.not79.not = icmp sgt i64 %indvars.iv, %48
  br i1 %.not79.not, label %96, label %.loopexit83

96:                                               ; preds = %95
  %indvars.iv.next = add nsw i64 %indvars.iv, -1
  %97 = load ptr, ptr %43, align 8, !tbaa !71
  %98 = mul nsw i64 %indvars.iv.next, %44
  %99 = getelementptr inbounds i8, ptr %97, i64 %98
  %100 = getelementptr inbounds i8, ptr %99, i64 %indvars.iv113
  %101 = load i8, ptr %100, align 1, !tbaa !62
  %.not80 = icmp eq i8 %101, %12
  br i1 %.not80, label %95, label %102, !llvm.loop !132

102:                                              ; preds = %96
  %103 = getelementptr inbounds i8, ptr %99, i64 %indvars.iv113
  store i8 -1, ptr %103, align 1, !tbaa !62
  br label %.loopexit83

.loopexit83:                                      ; preds = %95, %102
  %indvars.iv.next114 = add nsw i64 %indvars.iv113, 1
  %104 = icmp slt i64 %indvars.iv.next114, %46
  br i1 %104, label %.preheader84, label %.loopexit82, !llvm.loop !133

.loopexit81:                                      ; preds = %.loopexit81.preheader, %.loopexit
  %indvars.iv128 = phi i64 [ %73, %.loopexit81.preheader ], [ %indvars.iv.next129, %.loopexit ]
  %105 = load ptr, ptr %71, align 8, !tbaa !71
  %106 = mul nsw i64 %indvars.iv128, %74
  %107 = getelementptr inbounds i8, ptr %105, i64 %106
  br label %108

108:                                              ; preds = %109, %.loopexit81
  %indvars.iv125 = phi i64 [ %indvars.iv.next126, %109 ], [ %76, %.loopexit81 ]
  %.not76.not = icmp sgt i64 %indvars.iv125, %77
  br i1 %.not76.not, label %109, label %.loopexit

109:                                              ; preds = %108
  %indvars.iv.next126 = add nsw i64 %indvars.iv125, -1
  %110 = getelementptr inbounds i8, ptr %107, i64 %indvars.iv.next126
  %111 = load i8, ptr %110, align 1, !tbaa !62
  %.not77 = icmp eq i8 %111, %12
  br i1 %.not77, label %108, label %112, !llvm.loop !135

112:                                              ; preds = %109
  %113 = getelementptr inbounds i8, ptr %107, i64 %indvars.iv.next126
  store i8 -1, ptr %113, align 1, !tbaa !62
  br label %.loopexit

.loopexit:                                        ; preds = %108, %112
  %indvars.iv.next129 = add nsw i64 %indvars.iv128, 1
  %114 = icmp slt i64 %indvars.iv.next129, %75
  br i1 %114, label %.loopexit81, label %.loopexit82, !llvm.loop !136

.loopexit82:                                      ; preds = %.loopexit83, %.loopexit83.us, %.loopexit, %.loopexit.us, %.preheader86, %.preheader
  ret void
}